(lp1
(lp2
I102
aI26
aI0
aI0
aa(lp3
I7
aI0
aI0
aI0
aa(lp4
I40
aI4
aI0
aI0
aa(lp5
I121
aI6
aI0
aI0
aa(lp6
I77
aI1
aI0
aI0
aa(lp7
I23
aI5
aI0
aI0
aa(lp8
I68
aI6
aI0
aI6
aa(lp9
I38
aI4
aI0
aI0
aa(lp10
I35
aI4
aI0
aI0
aa(lp11
I23
aI0
aI0
aI0
aa(lp12
I90
aI6
aI0
aI0
aa(lp13
I95
aI3
aI0
aI3
aa(lp14
I125
aI1
aI0
aI1
aa(lp15
I43
aI4
aI0
aI0
aa(lp16
I56
aI0
aI0
aI0
aa(lp17
I82
aI27
aI0
aI0
aa(lp18
I70
aI14
aI0
aI0
aa(lp19
I68
aI24
aI0
aI0
aa(lp20
I105
aI12
aI0
aI0
aa(lp21
I45
aI7
aI0
aI7
aa(lp22
I12
aI0
aI0
aI0
aa(lp23
I44
aI5
aI0
aI0
aa(lp24
I39
aI0
aI0
aI0
aa(lp25
I77
aI2
aI0
aI0
aa(lp26
I50
aI0
aI0
aI0
aa(lp27
I54
aI4
aI0
aI0
aa(lp28
I36
aI2
aI0
aI0
aa(lp29
I33
aI6
aI0
aI0
aa(lp30
I78
aI0
aI0
aI0
aa(lp31
I98
aI0
aI0
aI0
aa(lp32
I66
aI18
aI0
aI0
aa(lp33
I157
aI82
aI0
aI0
aa(lp34
I150
aI48
aI0
aI0
aa(lp35
I61
aI5
aI0
aI0
aa(lp36
I6
aI0
aI0
aI0
aa(lp37
I114
aI22
aI0
aI0
aa(lp38
I115
aI55
aI0
aI0
aa(lp39
I37
aI1
aI0
aI3
aa(lp40
I76
aI24
aI0
aI0
aa(lp41
I29
aI6
aI0
aI0
aa(lp42
I85
aI26
aI0
aI0
aa(lp43
I21
aI1
aI0
aI0
aa(lp44
I87
aI4
aI0
aI0
aa(lp45
I32
aI0
aI0
aI0
aa(lp46
I179
aI44
aI0
aI0
aa(lp47
I59
aI6
aI0
aI6
aa(lp48
I30
aI7
aI0
aI7
aa(lp49
I69
aI25
aI0
aI0
aa(lp50
I52
aI37
aI0
aI2
aa(lp51
I21
aI2
aI0
aI0
aa(lp52
I58
aI17
aI0
aI0
aa(lp53
I152
aI8
aI0
aI0
aa(lp54
I39
aI4
aI0
aI0
aa(lp55
I152
aI40
aI0
aI0
aa(lp56
I62
aI1
aI0
aI0
aa(lp57
I99
aI38
aI0
aI6
aa(lp58
I81
aI1
aI0
aI0
aa(lp59
I195
aI20
aI0
aI0
aa(lp60
I36
aI3
aI0
aI3
aa(lp61
I90
aI3
aI0
aI0
aa(lp62
I47
aI2
aI0
aI0
aa(lp63
I26
aI0
aI0
aI0
aa(lp64
I113
aI34
aI0
aI0
aa(lp65
I53
aI7
aI0
aI0
aa(lp66
I5
aI0
aI0
aI0
aa(lp67
I108
aI0
aI0
aI0
aa(lp68
I17
aI1
aI0
aI0
aa(lp69
I92
aI2
aI0
aI0
aa(lp70
I25
aI1
aI0
aI1
aa(lp71
I49
aI3
aI0
aI0
aa(lp72
I56
aI11
aI0
aI0
aa(lp73
I73
aI8
aI0
aI8
aa(lp74
I68
aI9
aI0
aI0
aa(lp75
I80
aI1
aI0
aI0
aa(lp76
I89
aI4
aI0
aI0
aa(lp77
I21
aI0
aI0
aI0
aa(lp78
I44
aI17
aI0
aI0
aa(lp79
I100
aI8
aI0
aI0
aa(lp80
I66
aI28
aI0
aI0
aa(lp81
I54
aI2
aI0
aI2
aa(lp82
I118
aI46
aI0
aI0
aa(lp83
I36
aI6
aI0
aI6
aa(lp84
I100
aI49
aI0
aI0
aa(lp85
I15
aI0
aI0
aI0
aa(lp86
I67
aI1
aI0
aI0
aa(lp87
I80
aI26
aI0
aI2
aa(lp88
I90
aI43
aI0
aI0
aa(lp89
I142
aI6
aI0
aI4
aa(lp90
I57
aI14
aI0
aI0
aa(lp91
I53
aI3
aI0
aI0
aa(lp92
I67
aI7
aI0
aI0
aa(lp93
I28
aI5
aI0
aI5
aa(lp94
I92
aI0
aI0
aI0
aa(lp95
I149
aI34
aI0
aI0
aa(lp96
I51
aI3
aI0
aI0
aa(lp97
I72
aI14
aI0
aI14
aa(lp98
I99
aI7
aI0
aI7
aa(lp99
I139
aI50
aI0
aI0
aa(lp100
I47
aI0
aI0
aI0
aa(lp101
I56
aI1
aI0
aI0
aa(lp102
I56
aI19
aI0
aI0
aa(lp103
I17
aI4
aI0
aI0
aa(lp104
I102
aI67
aI0
aI0
aa(lp105
I123
aI60
aI0
aI0
aa(lp106
I94
aI4
aI0
aI0
aa(lp107
I104
aI4
aI0
aI4
aa(lp108
I4
aI0
aI0
aI0
aa(lp109
I73
aI7
aI0
aI0
aa(lp110
I58
aI7
aI0
aI0
aa(lp111
I26
aI0
aI0
aI0
aa(lp112
I46
aI7
aI0
aI0
aa(lp113
I82
aI6
aI0
aI6
aa(lp114
I69
aI9
aI0
aI0
aa(lp115
I59
aI9
aI0
aI0
aa(lp116
I59
aI5
aI0
aI0
aa(lp117
I39
aI0
aI0
aI0
aa(lp118
I26
aI0
aI0
aI0
aa(lp119
I77
aI46
aI0
aI0
aa(lp120
I46
aI6
aI0
aI6
aa(lp121
I5
aI0
aI0
aI0
aa(lp122
I81
aI3
aI0
aI0
aa(lp123
I39
aI0
aI0
aI0
aa(lp124
I32
aI0
aI0
aI0
aa(lp125
I117
aI3
aI0
aI0
aa(lp126
I86
aI20
aI0
aI0
aa(lp127
I88
aI3
aI0
aI2
aa(lp128
I60
aI5
aI0
aI5
aa(lp129
I52
aI1
aI0
aI0
aa(lp130
I59
aI2
aI0
aI0
aa(lp131
I33
aI8
aI0
aI0
aa(lp132
I118
aI44
aI0
aI0
aa(lp133
I149
aI27
aI0
aI0
aa(lp134
I32
aI2
aI0
aI0
aa(lp135
I72
aI12
aI0
aI12
aa(lp136
I41
aI6
aI0
aI0
aa(lp137
I76
aI3
aI0
aI0
aa(lp138
I35
aI4
aI0
aI0
aa(lp139
I11
aI0
aI0
aI0
aa(lp140
I103
aI8
aI0
aI8
aa(lp141
I48
aI4
aI0
aI0
aa(lp142
I83
aI31
aI0
aI0
aa(lp143
I61
aI11
aI0
aI0
aa(lp144
I8
aI2
aI0
aI0
aa(lp145
I74
aI0
aI0
aI0
aa(lp146
I30
aI3
aI0
aI1
aa(lp147
I44
aI0
aI0
aI0
aa(lp148
I40
aI1
aI0
aI0
aa(lp149
I121
aI7
aI0
aI7
aa(lp150
I78
aI4
aI0
aI0
aa(lp151
I86
aI26
aI0
aI0
aa(lp152
I50
aI5
aI0
aI5
aa(lp153
I128
aI83
aI0
aI2
aa(lp154
I22
aI2
aI0
aI0
aa(lp155
I67
aI7
aI0
aI0
aa(lp156
I65
aI24
aI0
aI0
aa(lp157
I29
aI0
aI0
aI0
aa(lp158
I41
aI1
aI0
aI0
aa(lp159
I53
aI8
aI0
aI0
aa(lp160
I33
aI0
aI0
aI0
aa(lp161
I28
aI9
aI0
aI0
aa(lp162
I14
aI0
aI0
aI0
aa(lp163
I123
aI18
aI0
aI1
aa(lp164
I163
aI49
aI0
aI0
aa(lp165
I39
aI3
aI0
aI0
aa(lp166
I58
aI4
aI0
aI0
aa(lp167
I69
aI20
aI0
aI0
aa(lp168
I41
aI8
aI0
aI0
aa(lp169
I69
aI2
aI0
aI0
aa(lp170
I26
aI4
aI0
aI3
aa(lp171
I72
aI1
aI0
aI0
aa(lp172
I99
aI29
aI0
aI0
aa(lp173
I30
aI5
aI0
aI5
aa(lp174
I19
aI1
aI0
aI0
aa(lp175
I25
aI2
aI0
aI0
aa(lp176
I44
aI11
aI0
aI7
aa(lp177
I36
aI9
aI0
aI2
aa(lp178
I61
aI24
aI0
aI2
aa(lp179
I70
aI38
aI0
aI0
aa(lp180
I8
aI0
aI0
aI0
aa(lp181
I36
aI7
aI0
aI0
aa(lp182
I61
aI4
aI0
aI0
aa(lp183
I48
aI1
aI0
aI0
aa(lp184
I33
aI0
aI0
aI0
aa(lp185
I77
aI7
aI0
aI0
aa(lp186
I166
aI9
aI0
aI0
aa(lp187
I38
aI11
aI0
aI11
aa(lp188
I65
aI27
aI0
aI0
aa(lp189
I29
aI0
aI0
aI0
aa(lp190
I50
aI5
aI0
aI0
aa(lp191
I3
aI0
aI0
aI0
aa(lp192
I66
aI15
aI0
aI0
aa(lp193
I65
aI9
aI0
aI0
aa(lp194
I76
aI5
aI0
aI0
aa(lp195
I56
aI16
aI0
aI0
aa(lp196
I31
aI1
aI0
aI0
aa(lp197
I51
aI0
aI0
aI0
aa(lp198
I126
aI35
aI0
aI0
aa(lp199
I80
aI4
aI0
aI0
aa(lp200
I35
aI0
aI0
aI0
aa(lp201
I48
aI1
aI0
aI0
aa(lp202
I141
aI42
aI0
aI0
aa(lp203
I9
aI0
aI0
aI0
aa(lp204
I28
aI0
aI0
aI0
aa(lp205
I21
aI0
aI0
aI0
aa(lp206
I32
aI6
aI0
aI0
aa(lp207
I42
aI6
aI0
aI0
aa(lp208
I77
aI41
aI0
aI0
aa(lp209
I33
aI5
aI0
aI0
aa(lp210
I34
aI0
aI0
aI0
aa(lp211
I80
aI28
aI0
aI0
aa(lp212
I49
aI10
aI0
aI0
aa(lp213
I82
aI18
aI0
aI0
aa(lp214
I93
aI6
aI0
aI0
aa(lp215
I14
aI0
aI0
aI0
aa(lp216
I32
aI0
aI0
aI0
aa(lp217
I42
aI1
aI0
aI0
aa(lp218
I64
aI12
aI0
aI4
aa(lp219
I36
aI1
aI0
aI0
aa(lp220
I25
aI1
aI0
aI0
aa(lp221
I66
aI15
aI0
aI0
aa(lp222
I76
aI6
aI0
aI6
aa(lp223
I27
aI5
aI0
aI0
aa(lp224
I72
aI20
aI0
aI0
aa(lp225
I23
aI1
aI0
aI0
aa(lp226
I63
aI0
aI0
aI0
aa(lp227
I11
aI0
aI0
aI0
aa(lp228
I87
aI8
aI0
aI0
aa(lp229
I20
aI0
aI0
aI0
aa(lp230
I64
aI4
aI0
aI0
aa(lp231
I65
aI19
aI0
aI0
aa(lp232
I80
aI4
aI0
aI0
aa(lp233
I61
aI12
aI0
aI12
aa(lp234
I51
aI0
aI0
aI0
aa(lp235
I59
aI1
aI0
aI0
aa(lp236
I72
aI13
aI0
aI0
aa(lp237
I74
aI9
aI0
aI0
aa(lp238
I97
aI14
aI0
aI0
aa(lp239
I101
aI51
aI0
aI0
aa(lp240
I147
aI20
aI0
aI0
aa(lp241
I37
aI0
aI0
aI0
aa(lp242
I159
aI54
aI0
aI0
aa(lp243
I105
aI37
aI0
aI37
aa(lp244
I100
aI1
aI0
aI0
aa(lp245
I58
aI4
aI0
aI0
aa(lp246
I95
aI10
aI0
aI10
aa(lp247
I22
aI0
aI0
aI0
aa(lp248
I123
aI49
aI0
aI49
aa(lp249
I54
aI4
aI0
aI0
aa(lp250
I102
aI1
aI0
aI0
aa(lp251
I74
aI8
aI0
aI0
aa(lp252
I66
aI45
aI0
aI0
aa(lp253
I23
aI4
aI0
aI0
aa(lp254
I50
aI3
aI0
aI3
aa(lp255
I46
aI1
aI0
aI0
aa(lp256
I74
aI29
aI0
aI0
aa(lp257
I19
aI6
aI0
aI0
aa(lp258
I67
aI0
aI0
aI0
aa(lp259
I77
aI21
aI0
aI0
aa(lp260
I25
aI8
aI0
aI8
aa(lp261
I65
aI3
aI0
aI0
aa(lp262
I89
aI29
aI0
aI0
aa(lp263
I131
aI6
aI0
aI0
aa(lp264
I101
aI29
aI0
aI0
aa(lp265
I70
aI7
aI0
aI7
aa(lp266
I51
aI6
aI0
aI0
aa(lp267
I83
aI49
aI0
aI0
aa(lp268
I20
aI0
aI0
aI0
aa(lp269
I88
aI34
aI0
aI0
aa(lp270
I42
aI0
aI0
aI0
aa(lp271
I38
aI4
aI0
aI0
aa(lp272
I2
aI0
aI0
aI0
aa(lp273
I33
aI0
aI0
aI0
aa(lp274
I89
aI47
aI0
aI0
aa(lp275
I121
aI40
aI0
aI0
aa(lp276
I66
aI3
aI0
aI0
aa(lp277
I49
aI2
aI0
aI0
aa(lp278
I69
aI6
aI0
aI0
aa(lp279
I31
aI2
aI0
aI0
aa(lp280
I3
aI0
aI0
aI0
aa(lp281
I44
aI7
aI0
aI0
aa(lp282
I46
aI3
aI0
aI0
aa(lp283
I56
aI14
aI0
aI0
aa(lp284
I35
aI4
aI0
aI0
aa(lp285
I27
aI6
aI0
aI0
aa(lp286
I33
aI16
aI0
aI0
aa(lp287
I79
aI39
aI0
aI39
aa(lp288
I67
aI3
aI0
aI0
aa(lp289
I91
aI1
aI0
aI1
aa(lp290
I1
aI0
aI0
aI0
aa(lp291
I45
aI2
aI0
aI0
aa(lp292
I3
aI0
aI0
aI0
aa(lp293
I72
aI2
aI0
aI0
aa(lp294
I81
aI1
aI0
aI1
aa(lp295
I53
aI0
aI0
aI0
aa(lp296
I164
aI27
aI0
aI8
aa(lp297
I25
aI1
aI0
aI0
aa(lp298
I60
aI7
aI0
aI0
aa(lp299
I34
aI8
aI0
aI0
aa(lp300
I30
aI3
aI0
aI3
aa(lp301
I30
aI7
aI0
aI7
aa(lp302
I71
aI21
aI0
aI0
aa(lp303
I45
aI2
aI0
aI0
aa(lp304
I64
aI8
aI0
aI0
aa(lp305
I30
aI0
aI0
aI0
aa(lp306
I49
aI0
aI0
aI0
aa(lp307
I64
aI2
aI0
aI2
aa(lp308
I41
aI1
aI0
aI1
aa(lp309
I69
aI30
aI0
aI0
aa(lp310
I59
aI35
aI0
aI2
aa(lp311
I50
aI7
aI0
aI0
aa(lp312
I64
aI17
aI0
aI0
aa(lp313
I40
aI2
aI0
aI0
aa(lp314
I66
aI6
aI0
aI0
aa(lp315
I11
aI0
aI0
aI0
aa(lp316
I47
aI0
aI0
aI0
aa(lp317
I108
aI37
aI0
aI0
aa(lp318
I54
aI9
aI0
aI0
aa(lp319
I45
aI1
aI0
aI1
aa(lp320
I67
aI1
aI0
aI0
aa(lp321
I6
aI0
aI0
aI0
aa(lp322
I181
aI129
aI0
aI4
aa(lp323
I40
aI1
aI0
aI0
aa(lp324
I53
aI8
aI0
aI0
aa(lp325
I77
aI41
aI0
aI0
aa(lp326
I16
aI0
aI0
aI0
aa(lp327
I62
aI23
aI0
aI0
aa(lp328
I21
aI2
aI0
aI0
aa(lp329
I65
aI4
aI0
aI0
aa(lp330
I56
aI0
aI0
aI0
aa(lp331
I106
aI26
aI0
aI0
aa(lp332
I62
aI31
aI0
aI0
aa(lp333
I51
aI6
aI0
aI0
aa(lp334
I34
aI0
aI0
aI0
aa(lp335
I59
aI0
aI0
aI0
aa(lp336
I54
aI8
aI0
aI8
aa(lp337
I69
aI2
aI0
aI0
aa(lp338
I117
aI19
aI0
aI0
aa(lp339
I111
aI2
aI0
aI2
aa(lp340
I100
aI0
aI0
aI0
aa(lp341
I48
aI15
aI0
aI0
aa(lp342
I24
aI0
aI0
aI0
aa(lp343
I107
aI0
aI0
aI0
aa(lp344
I78
aI2
aI0
aI0
aa(lp345
I62
aI13
aI0
aI0
aa(lp346
I31
aI4
aI0
aI0
aa(lp347
I51
aI10
aI0
aI0
aa(lp348
I24
aI2
aI0
aI0
aa(lp349
I190
aI66
aI0
aI0
aa(lp350
I16
aI4
aI0
aI0
aa(lp351
I101
aI3
aI0
aI0
aa(lp352
I45
aI1
aI0
aI0
aa(lp353
I71
aI2
aI0
aI2
aa(lp354
I76
aI2
aI0
aI0
aa(lp355
I24
aI5
aI0
aI0
aa(lp356
I106
aI36
aI0
aI0
aa(lp357
I63
aI0
aI0
aI0
aa(lp358
I16
aI0
aI0
aI0
aa(lp359
I49
aI2
aI0
aI0
aa(lp360
I15
aI4
aI0
aI0
aa(lp361
I33
aI2
aI0
aI0
aa(lp362
I51
aI8
aI0
aI0
aa(lp363
I75
aI29
aI0
aI0
aa(lp364
I78
aI3
aI0
aI0
aa(lp365
I39
aI17
aI0
aI17
aa(lp366
I4
aI0
aI0
aI0
aa(lp367
I38
aI8
aI0
aI0
aa(lp368
I84
aI3
aI0
aI2
aa(lp369
I47
aI2
aI0
aI0
aa(lp370
I26
aI2
aI0
aI0
aa(lp371
I4
aI0
aI0
aI0
aa(lp372
I46
aI2
aI0
aI0
aa(lp373
I141
aI11
aI0
aI0
aa(lp374
I89
aI46
aI0
aI0
aa(lp375
I41
aI2
aI0
aI0
aa(lp376
I83
aI5
aI0
aI0
aa(lp377
I88
aI28
aI0
aI0
aa(lp378
I76
aI45
aI0
aI0
aa(lp379
I80
aI3
aI0
aI0
aa(lp380
I89
aI5
aI0
aI0
aa(lp381
I30
aI0
aI0
aI0
aa(lp382
I69
aI9
aI0
aI0
aa(lp383
I198
aI40
aI0
aI0
aa(lp384
I60
aI6
aI0
aI6
aa(lp385
I46
aI13
aI0
aI13
aa(lp386
I79
aI2
aI0
aI0
aa(lp387
I5
aI0
aI0
aI0
aa(lp388
I123
aI16
aI0
aI0
aa(lp389
I108
aI24
aI0
aI0
aa(lp390
I98
aI34
aI0
aI0
aa(lp391
I29
aI5
aI0
aI0
aa(lp392
I24
aI0
aI0
aI0
aa(lp393
I46
aI0
aI0
aI2
aa(lp394
I55
aI2
aI0
aI2
aa(lp395
I51
aI21
aI0
aI0
aa(lp396
I168
aI86
aI0
aI0
aa(lp397
I17
aI1
aI0
aI0
aa(lp398
I52
aI16
aI0
aI0
aa.